00000100  4F                dec di
00000101  52                push dx
00000102  47                inc di
00000103  2030              and [bx+si],dh
00000105  7837              js 0x13e
00000107  6330              arpl [bx+si],si
00000109  300A              xor [bp+si],cl
0000010B  42                inc dx
0000010C  49                dec cx
0000010D  54                push sp
0000010E  53                push bx
0000010F  2031              and [bx+di],dh
00000111  360A0A            or cl,[ss:bp+si]
00000114  43                inc bx
00000115  4F                dec di
00000116  44                inc sp
00000117  45                inc bp
00000118  5F                pop di
00000119  53                push bx
0000011A  45                inc bp
0000011B  47                inc di
0000011C  206571            and [di+0x71],ah
0000011F  7520              jnz 0x141
00000121  6764745F          fs jz 0x184
00000125  636F64            arpl [bx+0x64],bp
00000128  65202D            and [gs:di],ch
0000012B  206764            and [bx+0x64],ah
0000012E  745F              jz 0x18f
00000130  7374              jnc 0x1a6
00000132  61                popa
00000133  7274              jc 0x1a9
00000135  0A4441            or al,[si+0x41]
00000138  54                push sp
00000139  41                inc cx
0000013A  5F                pop di
0000013B  53                push bx
0000013C  45                inc bp
0000013D  47                inc di
0000013E  206571            and [di+0x71],ah
00000141  7520              jnz 0x163
00000143  6764745F          fs jz 0x1a6
00000147  6461              fs popa
00000149  7461              jz 0x1ac
0000014B  202D              and [di],ch
0000014D  206764            and [bx+0x64],ah
00000150  745F              jz 0x1b1
00000152  7374              jnc 0x1c8
00000154  61                popa
00000155  7274              jc 0x1cb
00000157  0A0A              or cl,[bp+si]
00000159  5F                pop di
0000015A  7374              jnc 0x1d0
0000015C  61                popa
0000015D  7274              jc 0x1d3
0000015F  3A0A              cmp cl,[bp+si]
00000161  2020              and [bx+si],ah
00000163  6A6D              push byte +0x6d
00000165  7020              jo 0x187
00000167  7368              jnc 0x1d1
00000169  6F                outsw
0000016A  7274              jc 0x1e0
0000016C  207374            and [bp+di+0x74],dh
0000016F  61                popa
00000170  7274              jc 0x1e6
00000172  0A20              or ah,[bx+si]
00000174  206E6F            and [bp+0x6f],ch
00000177  700A              jo 0x183
00000179  0A7469            or dh,[si+0x69]
0000017C  6D                insw
0000017D  657320            gs jnc 0x1a0
00000180  3333              xor si,[bp+di]
00000182  206462            and [si+0x62],ah
00000185  2030              and [bx+si],dh
00000187  0A0A              or cl,[bp+si]
00000189  7374              jnc 0x1ff
0000018B  61                popa
0000018C  7274              jc 0x202
0000018E  3A0A              cmp cl,[bp+si]
00000190  2020              and [bx+si],ah
00000192  2020              and [bx+si],ah
00000194  6A6D              push byte +0x6d
00000196  7020              jo 0x1b8
00000198  307830            xor [bx+si+0x30],bh
0000019B  3A7374            cmp dh,[bp+di+0x74]
0000019E  657032            gs jo 0x1d3
000001A1  0A0A              or cl,[bp+si]
000001A3  7374              jnc 0x219
000001A5  657032            gs jo 0x1da
000001A8  3A20              cmp ah,[bx+si]
000001AA  2020              and [bx+si],ah
000001AC  200A              and [bp+si],cl
000001AE  2020              and [bx+si],ah
000001B0  2020              and [bx+si],ah
000001B2  636C69            arpl [si+0x69],bp
000001B5  203B              and [bp+di],bh
000001B7  20436C            and [bp+di+0x6c],al
000001BA  6561              gs popa
000001BC  7220              jc 0x1de
000001BE  696E746572        imul bp,[bp+0x74],word 0x7265
000001C3  7275              jc 0x23a
000001C5  7074              jo 0x23b
000001C7  730A              jnc 0x1d3
000001C9  2020              and [bx+si],ah
000001CB  2020              and [bx+si],ah
000001CD  6D                insw
000001CE  6F                outsw
000001CF  7620              jna 0x1f1
000001D1  61                popa
000001D2  782C              js 0x200
000001D4  2030              and [bx+si],dh
000001D6  7830              js 0x208
000001D8  0A20              or ah,[bx+si]
000001DA  2020              and [bx+si],ah
000001DC  206D6F            and [di+0x6f],ch
000001DF  7620              jna 0x201
000001E1  64732C            fs jnc 0x210
000001E4  206178            and [bx+di+0x78],ah
000001E7  0A20              or ah,[bx+si]
000001E9  2020              and [bx+si],ah
000001EB  206D6F            and [di+0x6f],ch
000001EE  7620              jna 0x210
000001F0  65732C            gs jnc 0x21f
000001F3  206178            and [bx+di+0x78],ah
000001F6  0A20              or ah,[bx+si]
000001F8  2020              and [bx+si],ah
000001FA  206D6F            and [di+0x6f],ch
000001FD  7620              jna 0x21f
000001FF  7373              jnc 0x274
00000201  2C20              sub al,0x20
00000203  61                popa
00000204  780A              js 0x210
00000206  2020              and [bx+si],ah
00000208  2020              and [bx+si],ah
0000020A  6D                insw
0000020B  6F                outsw
0000020C  7620              jna 0x22e
0000020E  7370              jnc 0x280
00000210  2C20              sub al,0x20
00000212  307830            xor [bx+si+0x30],bh
00000215  0A20              or ah,[bx+si]
00000217  2020              and [bx+si],ah
00000219  207374            and [bp+di+0x74],dh
0000021C  69203B20          imul sp,[bx+si],word 0x203b
00000220  45                inc bp
00000221  6E                outsb
00000222  61                popa
00000223  626C65            bound bp,[si+0x65]
00000226  7320              jnc 0x248
00000228  696E746572        imul bp,[bp+0x74],word 0x7265
0000022D  7275              jc 0x2a4
0000022F  7074              jo 0x2a5
00000231  730A              jnc 0x23d
00000233  0A2E6C6F          or ch,[0x6f6c]
00000237  61                popa
00000238  645F              fs pop di
0000023A  7072              jo 0x2ae
0000023C  6F                outsw
0000023D  7465              jz 0x2a4
0000023F  637465            arpl [si+0x65],si
00000242  643A0A            cmp cl,[fs:bp+si]
00000245  2020              and [bx+si],ah
00000247  636C69            arpl [si+0x69],bp
0000024A  0A20              or ah,[bx+si]
0000024C  206C67            and [si+0x67],ch
0000024F  64745B            fs jz 0x2ad
00000252  6764745F          fs jz 0x2b5
00000256  64657363          gs jnc 0x2bd
0000025A  7269              jc 0x2c5
0000025C  7074              jo 0x2d2
0000025E  6F                outsw
0000025F  725D              jc 0x2be
00000261  0A20              or ah,[bx+si]
00000263  206D6F            and [di+0x6f],ch
00000266  7620              jna 0x288
00000268  6561              gs popa
0000026A  782C              js 0x298
0000026C  206372            and [bp+di+0x72],ah
0000026F  300A              xor [bp+si],cl
00000271  2020              and [bx+si],ah
00000273  6F                outsw
00000274  7220              jc 0x296
00000276  6561              gs popa
00000278  782C              js 0x2a6
0000027A  2030              and [bx+si],dh
0000027C  7831              js 0x2af
0000027E  0A20              or ah,[bx+si]
00000280  206D6F            and [di+0x6f],ch
00000283  7620              jna 0x2a5
00000285  637230            arpl [bp+si+0x30],si
00000288  2C20              sub al,0x20
0000028A  6561              gs popa
0000028C  780A              js 0x298
0000028E  2020              and [bx+si],ah
00000290  6A6D              push byte +0x6d
00000292  7020              jo 0x2b4
00000294  43                inc bx
00000295  4F                dec di
00000296  44                inc sp
00000297  45                inc bp
00000298  5F                pop di
00000299  53                push bx
0000029A  45                inc bp
0000029B  47                inc di
0000029C  3A6C6F            cmp ch,[si+0x6f]
0000029F  61                popa
000002A0  643332            xor si,[fs:bp+si]
000002A3  0A20              or ah,[bx+si]
000002A5  200A              and [bp+si],cl
000002A7  0A3B              or bh,[bp+di]
000002A9  47                inc di
000002AA  44                inc sp
000002AB  54                push sp
000002AC  0A6764            or ah,[bx+0x64]
000002AF  745F              jz 0x310
000002B1  7374              jnc 0x327
000002B3  61                popa
000002B4  7274              jc 0x32a
000002B6  3A0A              cmp cl,[bp+si]
000002B8  6764745F          fs jz 0x31b
000002BC  6E                outsb
000002BD  756C              jnz 0x32b
000002BF  6C                insb
000002C0  3A0A              cmp cl,[bp+si]
000002C2  2020              and [bx+si],ah
000002C4  64642030          and [fs:bx+si],dh
000002C8  7830              js 0x2fa
000002CA  200A              and [bp+si],cl
000002CC  2020              and [bx+si],ah
000002CE  64642030          and [fs:bx+si],dh
000002D2  7830              js 0x304
000002D4  0A20              or ah,[bx+si]
000002D6  200A              and [bp+si],cl
000002D8  3B6F66            cmp bp,[bx+0x66]
000002DB  667365            o32 jnc 0x343
000002DE  7420              jz 0x300
000002E0  307838            xor [bx+si+0x38],bh
000002E3  0A6764            or ah,[bx+0x64]
000002E6  745F              jz 0x347
000002E8  636F64            arpl [bx+0x64],bp
000002EB  653A20            cmp ah,[gs:bx+si]
000002EE  2020              and [bx+si],ah
000002F0  2020              and [bx+si],ah
000002F2  203B              and [bp+di],bh
000002F4  204353            and [bp+di+0x53],al
000002F7  20504F            and [bx+si+0x4f],dl
000002FA  49                dec cx
000002FB  4E                dec si
000002FC  54                push sp
000002FD  41                inc cx
000002FE  205345            and [bp+di+0x45],dl
00000301  4D                dec bp
00000302  2028              and [bx+si],ch
00000304  6D                insw
00000305  61                popa
00000306  7962              jns 0x36a
00000308  653F              gs aas
0000030A  290A              sub [bp+si],cx
0000030C  2020              and [bx+si],ah
0000030E  647720            fs ja 0x331
00000311  307866            xor [bx+si+0x66],bh
00000314  6666662020        o32 and [bx+si],ah
00000319  203B              and [bp+di],bh
0000031B  207365            and [bp+di+0x65],dh
0000031E  676D              a32 insw
00000320  656E              gs outsb
00000322  7420              jz 0x344
00000324  6C                insb
00000325  696D697420        imul bp,[di+0x69],word 0x2074
0000032A  302D              xor [di],ch
0000032C  3135              xor [di],si
0000032E  206269            and [bp+si+0x69],ah
00000331  7473              jz 0x3a6
00000333  0A20              or ah,[bx+si]
00000335  206477            and [si+0x77],ah
00000338  2030              and [bx+si],dh
0000033A  2020              and [bx+si],ah
0000033C  2020              and [bx+si],ah
0000033E  2020              and [bx+si],ah
00000340  2020              and [bx+si],ah
00000342  3B20              cmp sp,[bx+si]
00000344  626173            bound sp,[bx+di+0x73]
00000347  65206669          and [gs:bp+0x69],ah
0000034B  7273              jc 0x3c0
0000034D  7420              jz 0x36f
0000034F  302D              xor [di],ch
00000351  3135              xor [di],si
00000353  206269            and [bp+si+0x69],ah
00000356  7473              jz 0x3cb
00000358  0A20              or ah,[bx+si]
0000035A  206462            and [si+0x62],ah
0000035D  2030              and [bx+si],dh
0000035F  2020              and [bx+si],ah
00000361  2020              and [bx+si],ah
00000363  2020              and [bx+si],ah
00000365  2020              and [bx+si],ah
00000367  3B20              cmp sp,[bx+si]
00000369  626173            bound sp,[bx+di+0x73]
0000036C  652031            and [gs:bx+di],dh
0000036F  362D3233          ss sub ax,0x3332
00000373  206269            and [bp+si+0x69],ah
00000376  7473              jz 0x3eb
00000378  0A20              or ah,[bx+si]
0000037A  206462            and [si+0x62],ah
0000037D  2030              and [bx+si],dh
0000037F  7839              js 0x3ba
00000381  61                popa
00000382  2020              and [bx+si],ah
00000384  2020              and [bx+si],ah
00000386  203B              and [bp+di],bh
00000388  204163            and [bx+di+0x63],al
0000038B  636573            arpl [di+0x73],sp
0000038E  7320              jnc 0x3b0
00000390  627974            bound di,[bx+di+0x74]
00000393  650A20            or ah,[gs:bx+si]
00000396  206462            and [si+0x62],ah
00000399  2031              and [bx+di],dh
0000039B  3130              xor [bx+si],si
0000039D  3031              xor [bx+di],dh
0000039F  3131              xor [bx+di],si
000003A1  316220            xor [bp+si+0x20],sp
000003A4  203B              and [bp+di],bh
000003A6  206869            and [bx+si+0x69],ch
000003A9  67682034          push word 0x3420
000003AD  206269            and [bp+si+0x69],ah
000003B0  7420              jz 0x3d2
000003B2  666C              o32 insb
000003B4  61                popa
000003B5  677320            jnc 0x3d8
000003B8  61                popa
000003B9  6E                outsb
000003BA  64206C6F          and [fs:si+0x6f],ch
000003BE  7720              ja 0x3e0
000003C0  3420              xor al,0x20
000003C2  626974            bound bp,[bx+di+0x74]
000003C5  20666C            and [bp+0x6c],ah
000003C8  61                popa
000003C9  67730A            jnc 0x3d6
000003CC  2020              and [bx+si],ah
000003CE  646220            bound sp,[fs:bx+si]
000003D1  3020              xor [bx+si],ah
000003D3  2020              and [bx+si],ah
000003D5  2020              and [bx+si],ah
000003D7  2020              and [bx+si],ah
000003D9  203B              and [bp+di],bh
000003DB  204261            and [bp+si+0x61],al
000003DE  7365              jnc 0x445
000003E0  2032              and [bp+si],dh
000003E2  342D              xor al,0x2d
000003E4  3331              xor si,[bx+di]
000003E6  206269            and [bp+si+0x69],ah
000003E9  7473              jz 0x45e
000003EB  0A0A              or cl,[bp+si]
000003ED  3B6F66            cmp bp,[bx+0x66]
000003F0  667365            o32 jnc 0x458
000003F3  7420              jz 0x415
000003F5  307831            xor [bx+si+0x31],bh
000003F8  300A              xor [bp+si],cl
000003FA  6764745F          fs jz 0x45d
000003FE  6461              fs popa
00000400  7461              jz 0x463
00000402  3A20              cmp ah,[bx+si]
00000404  2020              and [bx+si],ah
00000406  2020              and [bx+si],ah
00000408  3B20              cmp sp,[bx+si]
0000040A  44                inc sp
0000040B  53                push bx
0000040C  2C20              sub al,0x20
0000040E  53                push bx
0000040F  53                push bx
00000410  2C20              sub al,0x20
00000412  45                inc bp
00000413  53                push bx
00000414  2C20              sub al,0x20
00000416  46                inc si
00000417  53                push bx
00000418  2C20              sub al,0x20
0000041A  47                inc di
0000041B  53                push bx
0000041C  0A20              or ah,[bx+si]
0000041E  206477            and [si+0x77],ah
00000421  2030              and [bx+si],dh
00000423  7866              js 0x48b
00000425  6666662020        o32 and [bx+si],ah
0000042A  203B              and [bp+di],bh
0000042C  205365            and [bp+di+0x65],dl
0000042F  676D              a32 insw
00000431  656E              gs outsb
00000433  7420              jz 0x455
00000435  6C                insb
00000436  696D697420        imul bp,[di+0x69],word 0x2074
0000043B  666972737420302D  imul esi,[bp+si+0x73],dword 0x2d302074
00000443  3135              xor [di],si
00000445  206269            and [bp+si+0x69],ah
00000448  7473              jz 0x4bd
0000044A  0A20              or ah,[bx+si]
0000044C  206477            and [si+0x77],ah
0000044F  2030              and [bx+si],dh
00000451  2020              and [bx+si],ah
00000453  2020              and [bx+si],ah
00000455  2020              and [bx+si],ah
00000457  2020              and [bx+si],ah
00000459  3B20              cmp sp,[bx+si]
0000045B  626173            bound sp,[bx+di+0x73]
0000045E  65206669          and [gs:bp+0x69],ah
00000462  7273              jc 0x4d7
00000464  7420              jz 0x486
00000466  302D              xor [di],ch
00000468  3135              xor [di],si
0000046A  206269            and [bp+si+0x69],ah
0000046D  7473              jz 0x4e2
0000046F  0A20              or ah,[bx+si]
00000471  206462            and [si+0x62],ah
00000474  2030              and [bx+si],dh
00000476  2020              and [bx+si],ah
00000478  2020              and [bx+si],ah
0000047A  2020              and [bx+si],ah
0000047C  2020              and [bx+si],ah
0000047E  3B20              cmp sp,[bx+si]
00000480  626173            bound sp,[bx+di+0x73]
00000483  652031            and [gs:bx+di],dh
00000486  362D3233          ss sub ax,0x3332
0000048A  206269            and [bp+si+0x69],ah
0000048D  7473              jz 0x502
0000048F  0A20              or ah,[bx+si]
00000491  206462            and [si+0x62],ah
00000494  2030              and [bx+si],dh
00000496  7839              js 0x4d1
00000498  3220              xor ah,[bx+si]
0000049A  2020              and [bx+si],ah
0000049C  2020              and [bx+si],ah
0000049E  3B20              cmp sp,[bx+si]
000004A0  41                inc cx
000004A1  636365            arpl [bp+di+0x65],sp
000004A4  7373              jnc 0x519
000004A6  206279            and [bp+si+0x79],ah
000004A9  7465              jz 0x510
000004AB  0A20              or ah,[bx+si]
000004AD  206462            and [si+0x62],ah
000004B0  2031              and [bx+di],dh
000004B2  3130              xor [bx+si],si
000004B4  3031              xor [bx+di],dh
000004B6  3131              xor [bx+di],si
000004B8  316220            xor [bp+si+0x20],sp
000004BB  203B              and [bp+di],bh
000004BD  206869            and [bx+si+0x69],ch
000004C0  67682034          push word 0x3420
000004C4  206269            and [bp+si+0x69],ah
000004C7  7420              jz 0x4e9
000004C9  666C              o32 insb
000004CB  61                popa
000004CC  677320            jnc 0x4ef
000004CF  61                popa
000004D0  6E                outsb
000004D1  64206C6F          and [fs:si+0x6f],ch
000004D5  7720              ja 0x4f7
000004D7  3420              xor al,0x20
000004D9  626974            bound bp,[bx+di+0x74]
000004DC  20666C            and [bp+0x6c],ah
000004DF  61                popa
000004E0  67730A            jnc 0x4ed
000004E3  2020              and [bx+si],ah
000004E5  646220            bound sp,[fs:bx+si]
000004E8  3020              xor [bx+si],ah
000004EA  2020              and [bx+si],ah
000004EC  2020              and [bx+si],ah
000004EE  2020              and [bx+si],ah
000004F0  203B              and [bp+di],bh
000004F2  204261            and [bp+si+0x61],al
000004F5  7365              jnc 0x55c
000004F7  2032              and [bp+si],dh
000004F9  342D              xor al,0x2d
000004FB  3331              xor si,[bx+di]
000004FD  206269            and [bp+si+0x69],ah
00000500  7473              jz 0x575
00000502  0A0A              or cl,[bp+si]
00000504  6764745F          fs jz 0x567
00000508  656E              gs outsb
0000050A  643A0A            cmp cl,[fs:bp+si]
0000050D  0A6764            or ah,[bx+0x64]
00000510  745F              jz 0x571
00000512  64657363          gs jnc 0x579
00000516  7269              jc 0x581
00000518  7074              jo 0x58e
0000051A  6F                outsw
0000051B  723A              jc 0x557
0000051D  0A20              or ah,[bx+si]
0000051F  206477            and [si+0x77],ah
00000522  206764            and [bx+0x64],ah
00000525  745F              jz 0x586
00000527  656E              gs outsb
00000529  64202D            and [fs:di],ch
0000052C  206764            and [bx+0x64],ah
0000052F  745F              jz 0x590
00000531  7374              jnc 0x5a7
00000533  61                popa
00000534  7274              jc 0x5aa
00000536  2D310A            sub ax,0xa31
00000539  2020              and [bx+si],ah
0000053B  6464206764        and [fs:bx+0x64],ah
00000540  745F              jz 0x5a1
00000542  7374              jnc 0x5b8
00000544  61                popa
00000545  7274              jc 0x5bb
00000547  200A              and [bp+si],cl
00000549  0A5B42            or bl,[bp+di+0x42]
0000054C  49                dec cx
0000054D  54                push sp
0000054E  53                push bx
0000054F  2033              and [bp+di],dh
00000551  325D0A            xor bl,[di+0xa]
00000554  6C                insb
00000555  6F                outsw
00000556  61                popa
00000557  643332            xor si,[fs:bp+si]
0000055A  3A0A              cmp cl,[bp+si]
0000055C  2020              and [bx+si],ah
0000055E  6A6D              push byte +0x6d
00000560  7020              jo 0x582
00000562  240A              and al,0xa
00000564  0A0A              or cl,[bp+si]
00000566  0A7469            or dh,[si+0x69]
00000569  6D                insw
0000056A  657320            gs jnc 0x58d
0000056D  353130            xor ax,0x3031
00000570  2D2824            sub ax,0x2428
00000573  202D              and [di],ch
00000575  2024              and [si],ah
00000577  2429              and al,0x29
00000579  206462            and [si+0x62],ah
0000057C  2030              and [bx+si],dh
0000057E  0A6477            or ah,[si+0x77]
00000581  2030              and [bx+si],dh
00000583  7841              js 0x5c6
00000585  41                inc cx
00000586  35350A            xor ax,0xa35
